; Function Attrs: mustprogress nounwind uwtable
define hidden noundef ptr @_ZN11JfrCHeapObj23allocate_array_noinlineEmm(i64 noundef %0, i64 noundef %1) local_unnamed_addr #0 align 2 {
  %3 = alloca %class.NativeCallStack, align 8
  %4 = load i32, ptr @_ZN10MemTracker15_tracking_levelE, align 4
  %5 = icmp eq i32 %4, 3
  br i1 %5, label %6, label %7

6:                                                ; preds = %2
  call void @_ZN15NativeCallStackC1Ei(ptr noundef nonnull align 8 dereferenceable(32) %3, i32 noundef 1) #6
  br label %7

7:                                                ; preds = %2, %6
  %8 = mul i64 %1, %0
  %9 = call noundef ptr @_Z12AllocateHeapm8MEMFLAGSRK15NativeCallStackN17AllocFailStrategy13AllocFailEnumE(i64 noundef %8, i8 noundef zeroext 16, ptr noundef nonnull align 8 dereferenceable(32) %3, i32 noundef 1) #6
  ret ptr %9
}